target datalayout = "e-m:e-p270:32:32-p271:32:32-p272:64:64-i64:64-i128:128-f80:128-n8:16:32:64-S128"
target triple = "x86_64-pc-linux-gnu"

%struct.curl_trc_feat = type { ptr, i32 }
%struct.Curl_chunker = type { i64, i32, i32, %struct.dynbuf, i8, [17 x i8], i8 }
%struct.dynbuf = type { ptr, i64, i64, i64 }
%struct.Curl_easy = type { i32, i64, i64, ptr, %struct.Curl_llist_node, %struct.Curl_llist_node, i32, i32, %struct.Curl_message, %struct.easy_pollset, %struct.Names, ptr, ptr, ptr, ptr, %struct.SingleRequest, %struct.UserDefined, ptr, ptr, ptr, %struct.Progress, %struct.UrlState, ptr, %struct.PureInfo, %struct.curl_tlssessioninfo }
%struct.Curl_llist_node = type { ptr, ptr, ptr, ptr }
%struct.Curl_message = type { %struct.Curl_llist_node, %struct.CURLMsg }
%struct.CURLMsg = type { i32, ptr, %union.anon }
%union.anon = type { ptr }
%struct.easy_pollset = type { [5 x i32], i32, [5 x i8] }
%struct.Names = type { ptr, i32 }
%struct.SingleRequest = type <{ i64, i64, i64, i64, %struct.curltime, i32, i32, i32, i32, i64, i32, i32, i8, i8, [2 x i8], i32, ptr, ptr, %struct.bufq, i64, i64, ptr, ptr, %union.anon.0, ptr, i8, i32, [3 x i8] }>
%struct.curltime = type { i64, i32 }
%struct.bufq = type { ptr, ptr, ptr, ptr, i64, i64, i64, i32 }
%union.anon.0 = type { ptr }
%struct.UserDefined = type <{ ptr, ptr, ptr, ptr, ptr, ptr, i64, i64, i64, ptr, ptr, i64, ptr, ptr, ptr, ptr, ptr, ptr, ptr, ptr, ptr, ptr, ptr, ptr, ptr, ptr, ptr, ptr, ptr, ptr, ptr, ptr, ptr, ptr, ptr, i64, i64, i64, i64, i64, i64, i64, i64, i64, ptr, ptr, %struct.curl_mimepart, ptr, ptr, ptr, i64, %struct.ssl_config_data, %struct.ssl_config_data, ptr, i16, i8, i8, %struct.ssl_general_config, i32, i32, i32, [4 x i8], ptr, ptr, i64, i32, i8, i8, i8, i8, ptr, ptr, ptr, i32, [4 x i8], [74 x ptr], [8 x ptr], i32, i32, i32, [4 x i8], ptr, i32, [4 x i8], ptr, ptr, ptr, ptr, ptr, i32, i32, i32, i32, i32, i32, i32, i32, i64, ptr, ptr, i64, ptr, i64, ptr, ptr, ptr, ptr, i32, i16, i16, i16, i8, i8, i8, i8, i8, i8, i8, i8, i64, [6 x i8] }>
%struct.curl_mimepart = type { ptr, ptr, i32, i32, ptr, ptr, ptr, ptr, ptr, ptr, ptr, ptr, ptr, ptr, ptr, i64, %struct.mime_state, ptr, %struct.mime_encoder_state, i64 }
%struct.mime_state = type { i32, ptr, i64 }
%struct.mime_encoder_state = type { i64, i64, i64, [256 x i8] }
%struct.ssl_config_data = type { %struct.ssl_primary_config, i64, ptr, ptr, ptr, ptr, ptr, ptr, ptr, i16 }
%struct.ssl_primary_config = type { ptr, ptr, ptr, ptr, ptr, ptr, ptr, ptr, ptr, ptr, ptr, ptr, ptr, ptr, i8, i32, i8, i8 }
%struct.ssl_general_config = type { i32 }
%struct.Progress = type { i64, %struct.pgrs_dir, %struct.pgrs_dir, i64, i64, i32, i32, i64, i64, i64, i64, i64, i64, i64, i64, i64, %struct.curltime, %struct.curltime, %struct.curltime, %struct.curltime, %struct.curltime, [6 x i64], [6 x %struct.curltime], i32, i8 }
%struct.pgrs_dir = type { i64, i64, i64, %struct.pgrs_measure }
%struct.pgrs_measure = type { %struct.curltime, i64 }
%struct.UrlState = type { %struct.curltime, i64, i64, %struct.dynbuf, ptr, i64, ptr, i32, i32, i32, ptr, i32, i64, i32, ptr, %struct.digestdata, %struct.digestdata, %struct.auth, %struct.auth, %struct.Curl_async, ptr, i8, %struct.curltime, %struct.Curl_tree, %struct.Curl_llist, [15 x %struct.time_node], ptr, ptr, i64, i64, i64, i64, [32 x i8], i64, ptr, ptr, ptr, %struct.urlpieces, ptr, ptr, ptr, ptr, ptr, i64, %struct.dynbuf, %struct.Curl_llist, [2 x %struct.curl_header], ptr, i32, ptr, ptr, %struct.store_netrc, %struct.dynamically_allocated_data, i8, i8, i8, i8, i32 }
%struct.digestdata = type { ptr, ptr, ptr, ptr, ptr, ptr, i32, i8, i8 }
%struct.auth = type { i64, i64, i64, i8 }
%struct.Curl_async = type { ptr, ptr, ptr, ptr, i32, i32, i8 }
%struct.Curl_tree = type { ptr, ptr, ptr, ptr, %struct.curltime, ptr }
%struct.time_node = type { %struct.Curl_llist_node, %struct.curltime, i32 }
%struct.urlpieces = type { ptr, ptr, ptr, ptr, ptr, ptr, ptr, ptr }
%struct.Curl_llist = type { ptr, ptr, ptr, i64 }
%struct.curl_header = type { ptr, ptr, i64, i64, i32, ptr }
%struct.store_netrc = type { %struct.dynbuf, ptr, i8 }
%struct.dynamically_allocated_data = type { ptr, ptr, ptr, ptr, ptr, ptr, ptr, ptr, ptr, ptr, ptr, ptr, ptr, ptr }
%struct.PureInfo = type { i32, i32, i32, i64, i64, i64, i64, i64, i64, i64, ptr, ptr, i64, i32, %struct.ip_quadruple, i32, ptr, i32, %struct.curl_certinfo, i32, i8 }
%struct.ip_quadruple = type { [46 x i8], [46 x i8], i32, i32 }
%struct.curl_certinfo = type { i32, ptr }
%struct.curl_tlssessioninfo = type { i32, ptr }
%struct.Curl_cwriter = type { ptr, ptr, ptr, i32 }
%struct.chunked_writer = type { %struct.Curl_cwriter, %struct.Curl_chunker }

@.str.9 = private unnamed_addr constant [42 x i8] c"Failed reading the chunked-encoded stream\00", align 1
@.str.10 = private unnamed_addr constant [23 x i8] c"%s in chunked-encoding\00", align 1
@.str.11 = private unnamed_addr constant [36 x i8] c"Leftovers after chunking: %zu bytes\00", align 1
@.str.12 = private unnamed_addr constant [53 x i8] c"transfer closed with outstanding read data remaining\00", align 1
@.str.13 = private unnamed_addr constant [3 x i8] c"OK\00", align 1
@.str.14 = private unnamed_addr constant [28 x i8] c"Too long hexadecimal number\00", align 1
@.str.15 = private unnamed_addr constant [40 x i8] c"Illegal or missing hexadecimal sequence\00", align 1
@.str.16 = private unnamed_addr constant [25 x i8] c"Malformed encoding found\00", align 1
@.str.17 = private unnamed_addr constant [29 x i8] c"Error writing data to client\00", align 1
@.str.18 = private unnamed_addr constant [27 x i8] c"Bad content-encoding found\00", align 1
@.str.19 = private unnamed_addr constant [14 x i8] c"Out of memory\00", align 1

; Function Attrs: nounwind uwtable
define internal ptr @Curl_chunked_strerror(i32 noundef %0) #0 {
  %2 = alloca ptr, align 8
  %3 = alloca i32, align 4
  store i32 %0, ptr %3, align 4, !tbaa !28
  %4 = load i32, ptr %3, align 4, !tbaa !28
  switch i32 %4, label %5 [
    i32 1, label %6
    i32 2, label %7
    i32 3, label %8
    i32 6, label %9
    i32 4, label %10
    i32 5, label %11
  ]

5:                                                ; preds = %1
  store ptr @.str.13, ptr %2, align 8
  br label %12

6:                                                ; preds = %1
  store ptr @.str.14, ptr %2, align 8
  br label %12

7:                                                ; preds = %1
  store ptr @.str.15, ptr %2, align 8
  br label %12

8:                                                ; preds = %1
  store ptr @.str.16, ptr %2, align 8
  br label %12

9:                                                ; preds = %1
  store ptr @.str.17, ptr %2, align 8
  br label %12

10:                                               ; preds = %1
  store ptr @.str.18, ptr %2, align 8
  br label %12

11:                                               ; preds = %1
  store ptr @.str.19, ptr %2, align 8
  br label %12

12:                                               ; preds = %11, %10, %9, %8, %7, %6, %5
  %13 = load ptr, ptr %2, align 8
  ret ptr %13
}

; Function Attrs: nounwind uwtable
define internal i32 @cw_chunked_write(ptr noundef %0, ptr noundef %1, i32 noundef %2, ptr noundef %3, i64 noundef %4) #0 {
  %6 = alloca i32, align 4
  %7 = alloca ptr, align 8
  %8 = alloca ptr, align 8
  %9 = alloca i32, align 4
  %10 = alloca ptr, align 8
  %11 = alloca i64, align 8
  %12 = alloca ptr, align 8
  %13 = alloca i32, align 4
  %14 = alloca i64, align 8
  %15 = alloca i32, align 4
  store ptr %0, ptr %7, align 8, !tbaa !3
  store ptr %1, ptr %8, align 8, !tbaa !26
  store i32 %2, ptr %9, align 4, !tbaa !28
  store ptr %3, ptr %10, align 8, !tbaa !22
  store i64 %4, ptr %11, align 8, !tbaa !23
  call void @llvm.lifetime.start.p0(i64 8, ptr %12) #5
  %16 = load ptr, ptr %8, align 8, !tbaa !26
  %17 = getelementptr inbounds nuw %struct.Curl_cwriter, ptr %16, i32 0, i32 2
  %18 = load ptr, ptr %17, align 8, !tbaa !99
  store ptr %18, ptr %12, align 8, !tbaa !102
  call void @llvm.lifetime.start.p0(i64 4, ptr %13) #5
  call void @llvm.lifetime.start.p0(i64 8, ptr %14) #5
  %19 = load i32, ptr %9, align 4, !tbaa !28
  %20 = and i32 %19, 1
  %21 = icmp ne i32 %20, 0
  br i1 %21, label %31, label %22

22:                                               ; preds = %5
  %23 = load ptr, ptr %7, align 8, !tbaa !3
  %24 = load ptr, ptr %8, align 8, !tbaa !26
  %25 = getelementptr inbounds nuw %struct.Curl_cwriter, ptr %24, i32 0, i32 1
  %26 = load ptr, ptr %25, align 8, !tbaa !104
  %27 = load i32, ptr %9, align 4, !tbaa !28
  %28 = load ptr, ptr %10, align 8, !tbaa !22
  %29 = load i64, ptr %11, align 8, !tbaa !23
  %30 = call i32 @Curl_cwriter_write(ptr noundef %23, ptr noundef %26, i32 noundef %27, ptr noundef %28, i64 noundef %29)
  store i32 %30, ptr %6, align 4
  store i32 1, ptr %15, align 4
  br label %128

31:                                               ; preds = %5
  store i64 0, ptr %14, align 8, !tbaa !23
  %32 = load ptr, ptr %7, align 8, !tbaa !3
  %33 = load ptr, ptr %12, align 8, !tbaa !102
  %34 = getelementptr inbounds nuw %struct.chunked_writer, ptr %33, i32 0, i32 1
  %35 = load ptr, ptr %8, align 8, !tbaa !26
  %36 = getelementptr inbounds nuw %struct.Curl_cwriter, ptr %35, i32 0, i32 1
  %37 = load ptr, ptr %36, align 8, !tbaa !104
  %38 = load ptr, ptr %10, align 8, !tbaa !22
  %39 = load i64, ptr %11, align 8, !tbaa !23
  %40 = call i32 @httpchunk_readwrite(ptr noundef %32, ptr noundef %34, ptr noundef %37, ptr noundef %38, i64 noundef %39, ptr noundef %14)
  store i32 %40, ptr %13, align 4, !tbaa !28
  %41 = load i32, ptr %13, align 4, !tbaa !28
  %42 = icmp ne i32 %41, 0
  br i1 %42, label %43, label %60

43:                                               ; preds = %31
  %44 = load ptr, ptr %12, align 8, !tbaa !102
  %45 = getelementptr inbounds nuw %struct.chunked_writer, ptr %44, i32 0, i32 1
  %46 = getelementptr inbounds nuw %struct.Curl_chunker, ptr %45, i32 0, i32 2
  %47 = load i32, ptr %46, align 4, !tbaa !105
  %48 = icmp eq i32 6, %47
  br i1 %48, label %49, label %51

49:                                               ; preds = %43
  %50 = load ptr, ptr %7, align 8, !tbaa !3
  call void (ptr, ptr, ...) @Curl_failf(ptr noundef %50, ptr noundef @.str.9)
  br label %58

51:                                               ; preds = %43
  %52 = load ptr, ptr %7, align 8, !tbaa !3
  %53 = load ptr, ptr %12, align 8, !tbaa !102
  %54 = getelementptr inbounds nuw %struct.chunked_writer, ptr %53, i32 0, i32 1
  %55 = getelementptr inbounds nuw %struct.Curl_chunker, ptr %54, i32 0, i32 2
  %56 = load i32, ptr %55, align 4, !tbaa !105
  %57 = call ptr @Curl_chunked_strerror(i32 noundef %56)
  call void (ptr, ptr, ...) @Curl_failf(ptr noundef %52, ptr noundef @.str.10, ptr noundef %57)
  br label %58

58:                                               ; preds = %51, %49
  %59 = load i32, ptr %13, align 4, !tbaa !28
  store i32 %59, ptr %6, align 4
  store i32 1, ptr %15, align 4
  br label %128

60:                                               ; preds = %31
  %61 = load i64, ptr %14, align 8, !tbaa !23
  %62 = load i64, ptr %11, align 8, !tbaa !23
  %63 = sub i64 %62, %61
  store i64 %63, ptr %11, align 8, !tbaa !23
  %64 = load ptr, ptr %12, align 8, !tbaa !102
  %65 = getelementptr inbounds nuw %struct.chunked_writer, ptr %64, i32 0, i32 1
  %66 = getelementptr inbounds nuw %struct.Curl_chunker, ptr %65, i32 0, i32 1
  %67 = load i32, ptr %66, align 8, !tbaa !107
  %68 = icmp eq i32 8, %67
  br i1 %68, label %69, label %112

69:                                               ; preds = %60
  %70 = load ptr, ptr %7, align 8, !tbaa !3
  %71 = getelementptr inbounds nuw %struct.Curl_easy, ptr %70, i32 0, i32 15
  %72 = getelementptr inbounds nuw %struct.SingleRequest, ptr %71, i32 0, i32 26
  %73 = load i32, ptr %72, align 1
  %74 = and i32 %73, -9
  %75 = or i32 %74, 8
  store i32 %75, ptr %72, align 1
  %76 = load i64, ptr %11, align 8, !tbaa !23
  %77 = icmp ne i64 %76, 0
  br i1 %77, label %78, label %111

78:                                               ; preds = %69
  br label %79

79:                                               ; preds = %78
  %80 = load ptr, ptr %7, align 8, !tbaa !3
  %81 = icmp ne ptr %80, null
  br i1 %81, label %82, label %108

82:                                               ; preds = %79
  %83 = load ptr, ptr %7, align 8, !tbaa !3
  %84 = getelementptr inbounds nuw %struct.Curl_easy, ptr %83, i32 0, i32 16
  %85 = getelementptr inbounds nuw %struct.UserDefined, ptr %84, i32 0, i32 119
  %86 = load i64, ptr %85, align 2
  %87 = lshr i64 %86, 31
  %88 = and i64 %87, 1
  %89 = trunc i64 %88 to i32
  %90 = icmp ne i32 %89, 0
  br i1 %90, label %91, label %108

91:                                               ; preds = %82
  %92 = load ptr, ptr %7, align 8, !tbaa !3
  %93 = getelementptr inbounds nuw %struct.Curl_easy, ptr %92, i32 0, i32 21
  %94 = getelementptr inbounds nuw %struct.UrlState, ptr %93, i32 0, i32 50
  %95 = load ptr, ptr %94, align 8, !tbaa !31
  %96 = icmp ne ptr %95, null
  br i1 %96, label %97, label %105

97:                                               ; preds = %91
  %98 = load ptr, ptr %7, align 8, !tbaa !3
  %99 = getelementptr inbounds nuw %struct.Curl_easy, ptr %98, i32 0, i32 21
  %100 = getelementptr inbounds nuw %struct.UrlState, ptr %99, i32 0, i32 50
  %101 = load ptr, ptr %100, align 8, !tbaa !31
  %102 = getelementptr inbounds nuw %struct.curl_trc_feat, ptr %101, i32 0, i32 1
  %103 = load i32, ptr %102, align 8, !tbaa !95
  %104 = icmp sge i32 %103, 1
  br i1 %104, label %105, label %108

105:                                              ; preds = %97, %91
  %106 = load ptr, ptr %7, align 8, !tbaa !3
  %107 = load i64, ptr %11, align 8, !tbaa !23
  call void (ptr, ptr, ...) @Curl_infof(ptr noundef %106, ptr noundef @.str.11, i64 noundef %107)
  br label %108

108:                                              ; preds = %105, %97, %82, %79
  br label %109

109:                                              ; preds = %108
  br label %110

110:                                              ; preds = %109
  br label %111

111:                                              ; preds = %110, %69
  br label %127

112:                                              ; preds = %60
  %113 = load i32, ptr %9, align 4, !tbaa !28
  %114 = and i32 %113, 128
  %115 = icmp ne i32 %114, 0
  br i1 %115, label %116, label %126

116:                                              ; preds = %112
  %117 = load ptr, ptr %7, align 8, !tbaa !3
  %118 = getelementptr inbounds nuw %struct.Curl_easy, ptr %117, i32 0, i32 15
  %119 = getelementptr inbounds nuw %struct.SingleRequest, ptr %118, i32 0, i32 26
  %120 = load i32, ptr %119, align 1
  %121 = lshr i32 %120, 17
  %122 = and i32 %121, 1
  %123 = icmp ne i32 %122, 0
  br i1 %123, label %126, label %124

124:                                              ; preds = %116
  %125 = load ptr, ptr %7, align 8, !tbaa !3
  call void (ptr, ptr, ...) @Curl_failf(ptr noundef %125, ptr noundef @.str.12)
  store i32 18, ptr %6, align 4
  store i32 1, ptr %15, align 4
  br label %128

126:                                              ; preds = %116, %112
  br label %127

127:                                              ; preds = %126, %111
  store i32 0, ptr %6, align 4
  store i32 1, ptr %15, align 4
  br label %128

128:                                              ; preds = %127, %124, %58, %22
  call void @llvm.lifetime.end.p0(i64 8, ptr %14) #5
  call void @llvm.lifetime.end.p0(i64 4, ptr %13) #5
  call void @llvm.lifetime.end.p0(i64 8, ptr %12) #5
  %129 = load i32, ptr %6, align 4
  ret i32 %129
}